target datalayout = "e-m:e-p270:32:32-p271:32:32-p272:64:64-i64:64-i128:128-f80:128-n8:16:32:64-S128"
target triple = "x86_64-unknown-linux-gnu"

%"class.grpc_core::Arena" = type { %"struct.std::atomic", %"struct.std::atomic", i64, %"struct.std::atomic.0", %"struct.std::atomic.2", ptr }
%"struct.std::atomic" = type { %"struct.std::__atomic_base" }
%"struct.std::__atomic_base" = type { i64 }
%"struct.std::atomic.0" = type { %"struct.std::__atomic_base.1" }
%"struct.std::__atomic_base.1" = type { ptr }
%"struct.std::atomic.2" = type { %"struct.std::__atomic_base.3" }
%"struct.std::__atomic_base.3" = type { ptr }
%"struct.grpc_core::Arena::ManagedNewObject" = type { ptr, ptr }
%"class.grpc_event_engine::experimental::MemoryAllocator" = type { %"class.std::shared_ptr" }
%"class.std::shared_ptr" = type { %"class.std::__shared_ptr" }
%"class.std::__shared_ptr" = type { ptr, %"class.std::__shared_count" }
%"class.std::__shared_count" = type { ptr }

@_ZN9grpc_core5ArenaD1Ev = unnamed_addr alias void (ptr), ptr @_ZN9grpc_core5ArenaD2Ev

; Function Attrs: mustprogress nounwind uwtable
define linkonce_odr noundef ptr @_ZNKSt12__shared_ptrIN17grpc_event_engine12experimental8internal19MemoryAllocatorImplELN9__gnu_cxx12_Lock_policyE2EE3getEv(ptr noundef nonnull align 8 dereferenceable(16) %this) #4 comdat align 2 {
entry:
  %this.addr = alloca ptr, align 8
  store ptr %this, ptr %this.addr, align 8
  %this1 = load ptr, ptr %this.addr, align 8
  %_M_ptr = getelementptr inbounds %"class.std::__shared_ptr", ptr %this1, i32 0, i32 0
  %0 = load ptr, ptr %_M_ptr, align 8
  ret ptr %0
}

; Function Attrs: mustprogress nounwind uwtable
define linkonce_odr noundef ptr @_ZNKSt19__shared_ptr_accessIN17grpc_event_engine12experimental8internal19MemoryAllocatorImplELN9__gnu_cxx12_Lock_policyE2ELb0ELb0EE6_M_getEv(ptr noundef nonnull align 1 dereferenceable(1) %this) #4 comdat align 2 {
entry:
  %this.addr = alloca ptr, align 8
  store ptr %this, ptr %this.addr, align 8
  %this1 = load ptr, ptr %this.addr, align 8
  %call = call noundef ptr @_ZNKSt12__shared_ptrIN17grpc_event_engine12experimental8internal19MemoryAllocatorImplELN9__gnu_cxx12_Lock_policyE2EE3getEv(ptr noundef nonnull align 8 dereferenceable(16) %this1) #3
  ret ptr %call
}

; Function Attrs: mustprogress nounwind uwtable
define linkonce_odr noundef ptr @_ZSt10__exchangeIPN9grpc_core5Arena16ManagedNewObjectERS3_ET_RS5_OT0_(ptr noundef nonnull align 8 dereferenceable(8) %__obj, ptr noundef nonnull align 8 dereferenceable(8) %__new_val) #4 comdat {
entry:
  %__obj.addr = alloca ptr, align 8
  %__new_val.addr = alloca ptr, align 8
  %__old_val = alloca ptr, align 8
  store ptr %__obj, ptr %__obj.addr, align 8
  store ptr %__new_val, ptr %__new_val.addr, align 8
  %0 = load ptr, ptr %__obj.addr, align 8
  %1 = load ptr, ptr %0, align 8
  store ptr %1, ptr %__old_val, align 8
  %2 = load ptr, ptr %__new_val.addr, align 8
  %3 = load ptr, ptr %2, align 8
  %4 = load ptr, ptr %__obj.addr, align 8
  store ptr %3, ptr %4, align 8
  %5 = load ptr, ptr %__old_val, align 8
  ret ptr %5
}

; Function Attrs: mustprogress nounwind uwtable
define linkonce_odr noundef ptr @_ZNKSt19__shared_ptr_accessIN17grpc_event_engine12experimental8internal19MemoryAllocatorImplELN9__gnu_cxx12_Lock_policyE2ELb0ELb0EEptEv(ptr noundef nonnull align 1 dereferenceable(1) %this) #4 comdat align 2 {
entry:
  %this.addr = alloca ptr, align 8
  store ptr %this, ptr %this.addr, align 8
  %this1 = load ptr, ptr %this.addr, align 8
  %call = call noundef ptr @_ZNKSt19__shared_ptr_accessIN17grpc_event_engine12experimental8internal19MemoryAllocatorImplELN9__gnu_cxx12_Lock_policyE2ELb0ELb0EE6_M_getEv(ptr noundef nonnull align 1 dereferenceable(1) %this1) #3
  ret ptr %call
}

; Function Attrs: mustprogress nounwind uwtable
define linkonce_odr void @_ZN9grpc_core8DestructINS_5Arena16ManagedNewObjectEEEvPT_(ptr noundef %p) #4 comdat {
entry:
  %p.addr = alloca ptr, align 8
  store ptr %p, ptr %p.addr, align 8
  %0 = load ptr, ptr %p.addr, align 8
  %vtable = load ptr, ptr %0, align 8
  %vfn = getelementptr inbounds ptr, ptr %vtable, i64 0
  %1 = load ptr, ptr %vfn, align 8
  call void %1(ptr noundef nonnull align 8 dereferenceable(16) %0) #3
  ret void
}

; Function Attrs: mustprogress nounwind uwtable
define linkonce_odr noundef ptr @_ZSt8exchangeIPN9grpc_core5Arena16ManagedNewObjectERS3_ET_RS5_OT0_(ptr noundef nonnull align 8 dereferenceable(8) %__obj, ptr noundef nonnull align 8 dereferenceable(8) %__new_val) #4 comdat personality ptr @__gxx_personality_v0 {
entry:
  %__obj.addr = alloca ptr, align 8
  %__new_val.addr = alloca ptr, align 8
  store ptr %__obj, ptr %__obj.addr, align 8
  store ptr %__new_val, ptr %__new_val.addr, align 8
  %0 = load ptr, ptr %__obj.addr, align 8
  %1 = load ptr, ptr %__new_val.addr, align 8
  %call = invoke noundef ptr @_ZSt10__exchangeIPN9grpc_core5Arena16ManagedNewObjectERS3_ET_RS5_OT0_(ptr noundef nonnull align 8 dereferenceable(8) %0, ptr noundef nonnull align 8 dereferenceable(8) %1)
          to label %invoke.cont unwind label %terminate.lpad

invoke.cont:                                      ; preds = %entry
  ret ptr %call

terminate.lpad:                                   ; preds = %entry
  %2 = landingpad { ptr, i32 }
          catch ptr null
  %3 = extractvalue { ptr, i32 } %2, 0
  call void @__clang_call_terminate(ptr %3) #9
  unreachable
}

; Function Attrs: mustprogress nounwind uwtable
define linkonce_odr noundef ptr @_ZNSt6atomicIPN9grpc_core5Arena16ManagedNewObjectEE8exchangeES3_St12memory_order(ptr noundef nonnull align 8 dereferenceable(8) %this, ptr noundef %__p, i32 noundef %__m) #4 comdat align 2 {
entry:
  %this.addr.i = alloca ptr, align 8
  %__p.addr.i = alloca ptr, align 8
  %__m.addr.i = alloca i32, align 4
  %.atomictmp.i = alloca ptr, align 8
  %atomic-temp.i = alloca ptr, align 8
  %this.addr = alloca ptr, align 8
  %__p.addr = alloca ptr, align 8
  %__m.addr = alloca i32, align 4
  store ptr %this, ptr %this.addr, align 8
  store ptr %__p, ptr %__p.addr, align 8
  store i32 %__m, ptr %__m.addr, align 4
  %this1 = load ptr, ptr %this.addr, align 8
  %_M_b = getelementptr inbounds %"struct.std::atomic.2", ptr %this1, i32 0, i32 0
  %0 = load ptr, ptr %__p.addr, align 8
  %1 = load i32, ptr %__m.addr, align 4
  store ptr %_M_b, ptr %this.addr.i, align 8
  store ptr %0, ptr %__p.addr.i, align 8
  store i32 %1, ptr %__m.addr.i, align 4
  %this1.i = load ptr, ptr %this.addr.i, align 8
  %2 = load i32, ptr %__m.addr.i, align 4
  %3 = load ptr, ptr %__p.addr.i, align 8
  store ptr %3, ptr %.atomictmp.i, align 8
  switch i32 %2, label %monotonic.i [
    i32 1, label %acquire.i
    i32 2, label %acquire.i
    i32 3, label %release.i
    i32 4, label %acqrel.i
    i32 5, label %seqcst.i
  ]

monotonic.i:                                      ; preds = %entry
  %4 = load i64, ptr %.atomictmp.i, align 8
  %5 = atomicrmw xchg ptr %this1.i, i64 %4 monotonic, align 8
  store i64 %5, ptr %atomic-temp.i, align 8
  br label %_ZNSt13__atomic_baseIPN9grpc_core5Arena16ManagedNewObjectEE8exchangeES3_St12memory_order.exit

acquire.i:                                        ; preds = %entry, %entry
  %6 = load i64, ptr %.atomictmp.i, align 8
  %7 = atomicrmw xchg ptr %this1.i, i64 %6 acquire, align 8
  store i64 %7, ptr %atomic-temp.i, align 8
  br label %_ZNSt13__atomic_baseIPN9grpc_core5Arena16ManagedNewObjectEE8exchangeES3_St12memory_order.exit

release.i:                                        ; preds = %entry
  %8 = load i64, ptr %.atomictmp.i, align 8
  %9 = atomicrmw xchg ptr %this1.i, i64 %8 release, align 8
  store i64 %9, ptr %atomic-temp.i, align 8
  br label %_ZNSt13__atomic_baseIPN9grpc_core5Arena16ManagedNewObjectEE8exchangeES3_St12memory_order.exit

acqrel.i:                                         ; preds = %entry
  %10 = load i64, ptr %.atomictmp.i, align 8
  %11 = atomicrmw xchg ptr %this1.i, i64 %10 acq_rel, align 8
  store i64 %11, ptr %atomic-temp.i, align 8
  br label %_ZNSt13__atomic_baseIPN9grpc_core5Arena16ManagedNewObjectEE8exchangeES3_St12memory_order.exit

seqcst.i:                                         ; preds = %entry
  %12 = load i64, ptr %.atomictmp.i, align 8
  %13 = atomicrmw xchg ptr %this1.i, i64 %12 seq_cst, align 8
  store i64 %13, ptr %atomic-temp.i, align 8
  br label %_ZNSt13__atomic_baseIPN9grpc_core5Arena16ManagedNewObjectEE8exchangeES3_St12memory_order.exit

_ZNSt13__atomic_baseIPN9grpc_core5Arena16ManagedNewObjectEE8exchangeES3_St12memory_order.exit: ; preds = %seqcst.i, %acqrel.i, %release.i, %acquire.i, %monotonic.i
  %14 = load ptr, ptr %atomic-temp.i, align 8
  ret ptr %14
}

; Function Attrs: mustprogress uwtable
define linkonce_odr void @_ZN17grpc_event_engine12experimental15MemoryAllocator7ReleaseEm(ptr noundef nonnull align 8 dereferenceable(16) %this, i64 noundef %n) #6 comdat align 2 {
entry:
  %this.addr = alloca ptr, align 8
  %n.addr = alloca i64, align 8
  store ptr %this, ptr %this.addr, align 8
  store i64 %n, ptr %n.addr, align 8
  %this1 = load ptr, ptr %this.addr, align 8
  %allocator_ = getelementptr inbounds %"class.grpc_event_engine::experimental::MemoryAllocator", ptr %this1, i32 0, i32 0
  %call = call noundef ptr @_ZNKSt19__shared_ptr_accessIN17grpc_event_engine12experimental8internal19MemoryAllocatorImplELN9__gnu_cxx12_Lock_policyE2ELb0ELb0EEptEv(ptr noundef nonnull align 1 dereferenceable(1) %allocator_) #3
  %0 = load i64, ptr %n.addr, align 8
  %vtable = load ptr, ptr %call, align 8
  %vfn = getelementptr inbounds ptr, ptr %vtable, i64 4
  %1 = load ptr, ptr %vfn, align 8
  call void %1(ptr noundef nonnull align 8 dereferenceable(24) %call, i64 noundef %0)
  ret void
}

; Function Attrs: noreturn nounwind uwtable
define linkonce_odr hidden void @__clang_call_terminate(ptr noundef %0) #5 comdat {
  %2 = call ptr @__cxa_begin_catch(ptr %0) #3
  call void @_ZSt9terminatev() #9
  unreachable
}

; Function Attrs: mustprogress nounwind uwtable
define linkonce_odr noundef i32 @_ZStanSt12memory_orderSt23__memory_order_modifier(i32 noundef %__m, i32 noundef %__mod) #4 comdat {
entry:
  %__m.addr = alloca i32, align 4
  %__mod.addr = alloca i32, align 4
  store i32 %__m, ptr %__m.addr, align 4
  store i32 %__mod, ptr %__mod.addr, align 4
  %0 = load i32, ptr %__m.addr, align 4
  %1 = load i32, ptr %__mod.addr, align 4
  %and = and i32 %0, %1
  ret i32 %and
}

; Function Attrs: mustprogress uwtable
define void @_ZN9grpc_core5Arena24DestroyManagedNewObjectsEv(ptr noundef nonnull align 8 dereferenceable(48) %this) #6 align 2 {
entry:
  %this.addr = alloca ptr, align 8
  %p = alloca ptr, align 8
  store ptr %this, ptr %this.addr, align 8
  %this1 = load ptr, ptr %this.addr, align 8
  br label %while.cond

while.cond:                                       ; preds = %while.end, %entry
  %managed_new_head_ = getelementptr inbounds %"class.grpc_core::Arena", ptr %this1, i32 0, i32 4
  %call = call noundef ptr @_ZNSt6atomicIPN9grpc_core5Arena16ManagedNewObjectEE8exchangeES3_St12memory_order(ptr noundef nonnull align 8 dereferenceable(8) %managed_new_head_, ptr noundef null, i32 noundef 0) #3
  store ptr %call, ptr %p, align 8
  %cmp = icmp ne ptr %call, null
  br i1 %cmp, label %while.body, label %while.end6

while.body:                                       ; preds = %while.cond
  br label %while.cond2

while.cond2:                                      ; preds = %while.body4, %while.body
  %0 = load ptr, ptr %p, align 8
  %cmp3 = icmp ne ptr %0, null
  br i1 %cmp3, label %while.body4, label %while.end

while.body4:                                      ; preds = %while.cond2
  %1 = load ptr, ptr %p, align 8
  %next = getelementptr inbounds %"struct.grpc_core::Arena::ManagedNewObject", ptr %1, i32 0, i32 1
  %call5 = call noundef ptr @_ZSt8exchangeIPN9grpc_core5Arena16ManagedNewObjectERS3_ET_RS5_OT0_(ptr noundef nonnull align 8 dereferenceable(8) %p, ptr noundef nonnull align 8 dereferenceable(8) %next) #3
  call void @_ZN9grpc_core8DestructINS_5Arena16ManagedNewObjectEEEvPT_(ptr noundef %call5)
  br label %while.cond2, !llvm.loop !6

while.end:                                        ; preds = %while.cond2
  br label %while.cond, !llvm.loop !7

while.end6:                                       ; preds = %while.cond
  ret void
}

; Function Attrs: mustprogress uwtable
define void @_ZN9grpc_core5Arena7DestroyEv(ptr noundef nonnull align 8 dereferenceable(48) %this) #6 align 2 personality ptr @__gxx_personality_v0 {
entry:
  %this.addr.i = alloca ptr, align 8
  %__m.addr.i = alloca i32, align 4
  %__b.i = alloca i32, align 4
  %atomic-temp.i = alloca i64, align 8
  %this.addr = alloca ptr, align 8
  store ptr %this, ptr %this.addr, align 8
  %this1 = load ptr, ptr %this.addr, align 8
  call void @_ZN9grpc_core5Arena24DestroyManagedNewObjectsEv(ptr noundef nonnull align 8 dereferenceable(48) %this1)
  %memory_allocator_ = getelementptr inbounds %"class.grpc_core::Arena", ptr %this1, i32 0, i32 5
  %0 = load ptr, ptr %memory_allocator_, align 8
  %total_allocated_ = getelementptr inbounds %"class.grpc_core::Arena", ptr %this1, i32 0, i32 1
  store ptr %total_allocated_, ptr %this.addr.i, align 8
  store i32 0, ptr %__m.addr.i, align 4
  %this1.i = load ptr, ptr %this.addr.i, align 8
  %1 = load i32, ptr %__m.addr.i, align 4
  %call.i = invoke noundef i32 @_ZStanSt12memory_orderSt23__memory_order_modifier(i32 noundef %1, i32 noundef 65535)
          to label %invoke.cont.i unwind label %terminate.lpad.i

invoke.cont.i:                                    ; preds = %entry
  store i32 %call.i, ptr %__b.i, align 4
  %2 = load i32, ptr %__m.addr.i, align 4
  switch i32 %2, label %monotonic.i [
    i32 1, label %acquire.i
    i32 2, label %acquire.i
    i32 5, label %seqcst.i
  ]

monotonic.i:                                      ; preds = %invoke.cont.i
  %3 = load atomic i64, ptr %this1.i monotonic, align 8
  store i64 %3, ptr %atomic-temp.i, align 8
  br label %_ZNKSt13__atomic_baseImE4loadESt12memory_order.exit

acquire.i:                                        ; preds = %invoke.cont.i, %invoke.cont.i
  %4 = load atomic i64, ptr %this1.i acquire, align 8
  store i64 %4, ptr %atomic-temp.i, align 8
  br label %_ZNKSt13__atomic_baseImE4loadESt12memory_order.exit

seqcst.i:                                         ; preds = %invoke.cont.i
  %5 = load atomic i64, ptr %this1.i seq_cst, align 8
  store i64 %5, ptr %atomic-temp.i, align 8
  br label %_ZNKSt13__atomic_baseImE4loadESt12memory_order.exit

terminate.lpad.i:                                 ; preds = %entry
  %6 = landingpad { ptr, i32 }
          catch ptr null
  %7 = extractvalue { ptr, i32 } %6, 0
  call void @__clang_call_terminate(ptr %7) #9
  unreachable

_ZNKSt13__atomic_baseImE4loadESt12memory_order.exit: ; preds = %seqcst.i, %acquire.i, %monotonic.i
  %8 = load i64, ptr %atomic-temp.i, align 8
  call void @_ZN17grpc_event_engine12experimental15MemoryAllocator7ReleaseEm(ptr noundef nonnull align 8 dereferenceable(16) %0, i64 noundef %8)
  call void @_ZN9grpc_core5ArenaD1Ev(ptr noundef nonnull align 8 dereferenceable(48) %this1) #3
  call void @gpr_free_aligned(ptr noundef %this1)
  ret void
}