; Function Attrs: mustprogress uwtable
define void @_ZN9grpc_core5Arena7DestroyEv(ptr noundef nonnull align 8 dereferenceable(48) %this) local_unnamed_addr #5 align 2 personality ptr @__gxx_personality_v0 {
entry:
  %managed_new_head_.i = getelementptr inbounds i8, ptr %this, i64 32
  %0 = atomicrmw xchg ptr %managed_new_head_.i, i64 0 monotonic, align 8
  %cmp.not4.i = icmp eq i64 %0, 0
  br i1 %cmp.not4.i, label %_ZN9grpc_core5Arena24DestroyManagedNewObjectsEv.exit, label %while.cond2.preheader.i

while.cond.loopexit.i:                            ; preds = %while.body4.i
  %1 = atomicrmw xchg ptr %managed_new_head_.i, i64 0 monotonic, align 8
  %cmp.not.i = icmp eq i64 %1, 0
  br i1 %cmp.not.i, label %_ZN9grpc_core5Arena24DestroyManagedNewObjectsEv.exit, label %while.cond2.preheader.i, !llvm.loop !6

while.cond2.preheader.i:                          ; preds = %entry, %while.cond.loopexit.i
  %atomic-temp.i.0.i5.in.i = phi i64 [ %1, %while.cond.loopexit.i ], [ %0, %entry ]
  %atomic-temp.i.0.i5.i = inttoptr i64 %atomic-temp.i.0.i5.in.i to ptr
  br label %while.body4.i

while.body4.i:                                    ; preds = %while.body4.i, %while.cond2.preheader.i
  %p.02.i = phi ptr [ %atomic-temp.i.0.i5.i, %while.cond2.preheader.i ], [ %2, %while.body4.i ]
  %next.i = getelementptr inbounds i8, ptr %p.02.i, i64 8
  %2 = load ptr, ptr %next.i, align 8
  %vtable.i.i = load ptr, ptr %p.02.i, align 8
  %3 = load ptr, ptr %vtable.i.i, align 8
  tail call void %3(ptr noundef nonnull align 8 dereferenceable(16) %p.02.i) #11
  %cmp3.not.i = icmp eq ptr %2, null
  br i1 %cmp3.not.i, label %while.cond.loopexit.i, label %while.body4.i, !llvm.loop !7

_ZN9grpc_core5Arena24DestroyManagedNewObjectsEv.exit: ; preds = %while.cond.loopexit.i, %entry
  %memory_allocator_ = getelementptr inbounds i8, ptr %this, i64 40
  %4 = load ptr, ptr %memory_allocator_, align 8
  %total_allocated_ = getelementptr inbounds i8, ptr %this, i64 8
  %5 = load atomic i64, ptr %total_allocated_ monotonic, align 8
  %6 = load ptr, ptr %4, align 8
  %vtable.i = load ptr, ptr %6, align 8
  %vfn.i = getelementptr inbounds i8, ptr %vtable.i, i64 32
  %7 = load ptr, ptr %vfn.i, align 8
  tail call void %7(ptr noundef nonnull align 8 dereferenceable(24) %6, i64 noundef %5)
  tail call void @_ZN9grpc_core5ArenaD1Ev(ptr noundef nonnull align 8 dereferenceable(48) %this) #11
  tail call void @gpr_free_aligned(ptr noundef nonnull %this)
  ret void
}